; Function Attrs: mustprogress uwtable
define void @_ZN3gmx11PullElement12scheduleTaskEldRKSt8functionIFvS1_IFvvEEEE(ptr noundef nonnull align 8 dereferenceable(96) %0, i64 %1, double %2, ptr noundef nonnull align 8 dereferenceable(32) %3) unnamed_addr #0 align 2 personality ptr @__gxx_personality_v0 {
  %5 = alloca %"class.std::function.93", align 8
  %6 = getelementptr inbounds i8, ptr %0, i64 16
  %7 = load i8, ptr %6, align 8
  %8 = trunc i8 %7 to i1
  br i1 %8, label %9, label %_ZNSt8functionIFvvEED2Ev.exit

9:                                                ; preds = %4
  %10 = getelementptr inbounds i8, ptr %5, i64 16
  %11 = getelementptr inbounds i8, ptr %5, i64 24
  %12 = getelementptr inbounds i8, ptr %5, i64 8
  store i64 0, ptr %12, align 8
  %13 = ptrtoint ptr %0 to i64
  store i64 %13, ptr %5, align 8
  store ptr @"_ZNSt17_Function_handlerIFvvEZN3gmx11PullElement12scheduleTaskEldRKSt8functionIFvS3_IS0_EEEE3$_0E9_M_invokeERKSt9_Any_data", ptr %11, align 8
  store ptr @"_ZNSt17_Function_handlerIFvvEZN3gmx11PullElement12scheduleTaskEldRKSt8functionIFvS3_IS0_EEEE3$_0E10_M_managerERSt9_Any_dataRKSB_St18_Manager_operation", ptr %10, align 8
  %14 = getelementptr inbounds i8, ptr %3, i64 16
  %15 = load ptr, ptr %14, align 8
  %.not.i.i = icmp eq ptr %15, null
  br i1 %.not.i.i, label %16, label %17

16:                                               ; preds = %9
  invoke void @_ZSt25__throw_bad_function_callv() #20
          to label %.noexc unwind label %26

.noexc:                                           ; preds = %16
  unreachable

17:                                               ; preds = %9
  %18 = getelementptr inbounds i8, ptr %3, i64 24
  %19 = load ptr, ptr %18, align 8
  invoke void %19(ptr noundef nonnull align 8 dereferenceable(16) %3, ptr noundef nonnull align 8 dereferenceable(32) %5)
          to label %_ZNKSt8functionIFvS_IFvvEEEEclES1_.exit unwind label %26

_ZNKSt8functionIFvS_IFvvEEEEclES1_.exit:          ; preds = %17
  %20 = load ptr, ptr %10, align 8
  %.not.i.i4 = icmp eq ptr %20, null
  br i1 %.not.i.i4, label %_ZNSt8functionIFvvEED2Ev.exit, label %21

21:                                               ; preds = %_ZNKSt8functionIFvS_IFvvEEEEclES1_.exit
  %22 = invoke noundef zeroext i1 %20(ptr noundef nonnull align 8 dereferenceable(16) %5, ptr noundef nonnull align 8 dereferenceable(16) %5, i32 noundef 3)
          to label %_ZNSt8functionIFvvEED2Ev.exit unwind label %23

23:                                               ; preds = %21
  %24 = landingpad { ptr, i32 }
          catch ptr null
  %25 = extractvalue { ptr, i32 } %24, 0
  call void @__clang_call_terminate(ptr %25) #21
  unreachable

26:                                               ; preds = %17, %16
  %27 = landingpad { ptr, i32 }
          cleanup
  %28 = load ptr, ptr %10, align 8
  %.not.i.i5 = icmp eq ptr %28, null
  br i1 %.not.i.i5, label %_ZNSt8functionIFvvEED2Ev.exit6, label %29

29:                                               ; preds = %26
  %30 = invoke noundef zeroext i1 %28(ptr noundef nonnull align 8 dereferenceable(16) %5, ptr noundef nonnull align 8 dereferenceable(16) %5, i32 noundef 3)
          to label %_ZNSt8functionIFvvEED2Ev.exit6 unwind label %31

31:                                               ; preds = %29
  %32 = landingpad { ptr, i32 }
          catch ptr null
  %33 = extractvalue { ptr, i32 } %32, 0
  call void @__clang_call_terminate(ptr %33) #21
  unreachable

_ZNSt8functionIFvvEED2Ev.exit6:                   ; preds = %26, %29
  resume { ptr, i32 } %27

_ZNSt8functionIFvvEED2Ev.exit:                    ; preds = %21, %_ZNKSt8functionIFvS_IFvvEEEEclES1_.exit, %4
  ret void
}